target datalayout = "e-m:e-p270:32:32-p271:32:32-p272:64:64-i64:64-i128:128-f80:128-n8:16:32:64-S128"
target triple = "x86_64-unknown-linux-gnu"

%struct.grpc_closure = type { %union.anon, ptr, ptr, %union.anon.9 }
%union.anon = type { ptr }
%union.anon.9 = type { i64 }
%"class.absl::lts_20230802::Status" = type { i64 }
%"class.std::__cxx11::basic_string" = type { %"struct.std::__cxx11::basic_string<char>::_Alloc_hider", i64, %union.anon.14 }
%"struct.std::__cxx11::basic_string<char>::_Alloc_hider" = type { ptr }
%union.anon.14 = type { i64, [8 x i8] }
%"class.grpc_core::promise_filter_detail::BaseCallData::CapturedBatch" = type { ptr }
%struct.grpc_transport_stream_op_batch = type { ptr, ptr, i8, %struct.grpc_handler_private_op_data }
%struct.grpc_handler_private_op_data = type { ptr, %struct.grpc_closure }
%"class.grpc_core::promise_filter_detail::BaseCallData::Flusher" = type { %"class.absl::lts_20230802::InlinedVector", %"class.grpc_core::CallCombinerClosureList", ptr }
%"class.absl::lts_20230802::InlinedVector" = type { %"class.absl::lts_20230802::inlined_vector_internal::Storage" }
%"class.absl::lts_20230802::inlined_vector_internal::Storage" = type { %"class.absl::lts_20230802::container_internal::CompressedTuple", %"union.absl::lts_20230802::inlined_vector_internal::Storage<grpc_transport_stream_op_batch *, 1, std::allocator<grpc_transport_stream_op_batch *>>::Data" }
%"class.absl::lts_20230802::container_internal::CompressedTuple" = type { %"struct.absl::lts_20230802::container_internal::internal_compressed_tuple::CompressedTupleImpl" }
%"struct.absl::lts_20230802::container_internal::internal_compressed_tuple::CompressedTupleImpl" = type { %"struct.absl::lts_20230802::container_internal::internal_compressed_tuple::Storage.20" }
%"struct.absl::lts_20230802::container_internal::internal_compressed_tuple::Storage.20" = type { i64 }
%"union.absl::lts_20230802::inlined_vector_internal::Storage<grpc_transport_stream_op_batch *, 1, std::allocator<grpc_transport_stream_op_batch *>>::Data" = type { %"struct.absl::lts_20230802::inlined_vector_internal::Storage<grpc_transport_stream_op_batch *, 1, std::allocator<grpc_transport_stream_op_batch *>>::Allocated" }
%"struct.absl::lts_20230802::inlined_vector_internal::Storage<grpc_transport_stream_op_batch *, 1, std::allocator<grpc_transport_stream_op_batch *>>::Allocated" = type { ptr, i64 }
%"class.grpc_core::CallCombinerClosureList" = type { %"class.absl::lts_20230802::InlinedVector.21" }
%"class.absl::lts_20230802::InlinedVector.21" = type { %"class.absl::lts_20230802::inlined_vector_internal::Storage.22" }
%"class.absl::lts_20230802::inlined_vector_internal::Storage.22" = type { %"class.absl::lts_20230802::container_internal::CompressedTuple.23", %"union.absl::lts_20230802::inlined_vector_internal::Storage<grpc_core::CallCombinerClosureList::CallCombinerClosure, 6, std::allocator<grpc_core::CallCombinerClosureList::CallCombinerClosure>>::Data" }
%"class.absl::lts_20230802::container_internal::CompressedTuple.23" = type { %"struct.absl::lts_20230802::container_internal::internal_compressed_tuple::CompressedTupleImpl.24" }
%"struct.absl::lts_20230802::container_internal::internal_compressed_tuple::CompressedTupleImpl.24" = type { %"struct.absl::lts_20230802::container_internal::internal_compressed_tuple::Storage.20" }
%"union.absl::lts_20230802::inlined_vector_internal::Storage<grpc_core::CallCombinerClosureList::CallCombinerClosure, 6, std::allocator<grpc_core::CallCombinerClosureList::CallCombinerClosure>>::Data" = type { %"struct.absl::lts_20230802::inlined_vector_internal::Storage<grpc_core::CallCombinerClosureList::CallCombinerClosure, 6, std::allocator<grpc_core::CallCombinerClosureList::CallCombinerClosure>>::Allocated", [128 x i8] }
%"struct.absl::lts_20230802::inlined_vector_internal::Storage<grpc_core::CallCombinerClosureList::CallCombinerClosure, 6, std::allocator<grpc_core::CallCombinerClosureList::CallCombinerClosure>>::Allocated" = type { ptr, i64 }
%"struct.absl::lts_20230802::status_internal::StatusRep" = type { %"struct.std::atomic.323", i32, %"class.std::__cxx11::basic_string", %"class.std::unique_ptr.325" }
%"struct.std::atomic.323" = type { %"struct.std::__atomic_base.324" }
%"struct.std::__atomic_base.324" = type { i32 }
%"class.std::unique_ptr.325" = type { %"struct.std::__uniq_ptr_data.326" }
%"struct.std::__uniq_ptr_data.326" = type { %"class.std::__uniq_ptr_impl.327" }
%"class.std::__uniq_ptr_impl.327" = type { %"class.std::tuple.328" }
%"class.std::tuple.328" = type { %"struct.std::_Tuple_impl.329" }
%"struct.std::_Tuple_impl.329" = type { %"struct.std::_Head_base.332" }
%"struct.std::_Head_base.332" = type { ptr }

@.str.5 = private unnamed_addr constant [132 x i8] c"generated/home/dtcxzyw/WorkSpace/Projects/compilers/llvm-opt-benchmark/bench/grpc/grpc/src/core/lib/channel/promise_based_filter.cc\00", align 1
@.str.7 = private unnamed_addr constant [17 x i8] c"batch != nullptr\00", align 1

; Function Attrs: mustprogress nounwind uwtable
define linkonce_odr noundef ptr @_ZN4absl12lts_202308026Status12RepToPointerEm(i64 noundef %rep) #5 comdat align 2 {
entry:
  %rep.addr = alloca i64, align 8
  store i64 %rep, ptr %rep.addr, align 8
  %0 = load i64, ptr %rep.addr, align 8
  %sub = sub i64 %0, 1
  %1 = inttoptr i64 %sub to ptr
  ret ptr %1
}

; Function Attrs: mustprogress nounwind uwtable
define linkonce_odr noundef zeroext i1 @_ZN4absl12lts_202308026Status9IsInlinedEm(i64 noundef %rep) #5 comdat align 2 {
entry:
  %rep.addr = alloca i64, align 8
  store i64 %rep, ptr %rep.addr, align 8
  %0 = load i64, ptr %rep.addr, align 8
  %and = and i64 %0, 1
  %cmp = icmp eq i64 %and, 0
  ret i1 %cmp
}

; Function Attrs: mustprogress uwtable
define linkonce_odr void @_ZN4absl12lts_202308026Status3RefEm(i64 noundef %rep) #4 comdat align 2 {
entry:
  %this.addr.i = alloca ptr, align 8
  %__i.addr.i = alloca i32, align 4
  %__m.addr.i = alloca i32, align 4
  %.atomictmp.i = alloca i32, align 4
  %atomic-temp.i = alloca i32, align 4
  %rep.addr = alloca i64, align 8
  store i64 %rep, ptr %rep.addr, align 8
  %0 = load i64, ptr %rep.addr, align 8
  %call = call noundef zeroext i1 @_ZN4absl12lts_202308026Status9IsInlinedEm(i64 noundef %0)
  br i1 %call, label %if.end, label %if.then

if.then:                                          ; preds = %entry
  %1 = load i64, ptr %rep.addr, align 8
  %call1 = call noundef ptr @_ZN4absl12lts_202308026Status12RepToPointerEm(i64 noundef %1)
  %ref = getelementptr inbounds %"struct.absl::lts_20230802::status_internal::StatusRep", ptr %call1, i32 0, i32 0
  store ptr %ref, ptr %this.addr.i, align 8
  store i32 1, ptr %__i.addr.i, align 4
  store i32 0, ptr %__m.addr.i, align 4
  %this1.i = load ptr, ptr %this.addr.i, align 8
  %2 = load i32, ptr %__m.addr.i, align 4
  %3 = load i32, ptr %__i.addr.i, align 4
  store i32 %3, ptr %.atomictmp.i, align 4
  switch i32 %2, label %monotonic.i [
    i32 1, label %acquire.i
    i32 2, label %acquire.i
    i32 3, label %release.i
    i32 4, label %acqrel.i
    i32 5, label %seqcst.i
  ]

monotonic.i:                                      ; preds = %if.then
  %4 = load i32, ptr %.atomictmp.i, align 4
  %5 = atomicrmw add ptr %this1.i, i32 %4 monotonic, align 4
  store i32 %5, ptr %atomic-temp.i, align 4
  br label %_ZNSt13__atomic_baseIiE9fetch_addEiSt12memory_order.exit

acquire.i:                                        ; preds = %if.then, %if.then
  %6 = load i32, ptr %.atomictmp.i, align 4
  %7 = atomicrmw add ptr %this1.i, i32 %6 acquire, align 4
  store i32 %7, ptr %atomic-temp.i, align 4
  br label %_ZNSt13__atomic_baseIiE9fetch_addEiSt12memory_order.exit

release.i:                                        ; preds = %if.then
  %8 = load i32, ptr %.atomictmp.i, align 4
  %9 = atomicrmw add ptr %this1.i, i32 %8 release, align 4
  store i32 %9, ptr %atomic-temp.i, align 4
  br label %_ZNSt13__atomic_baseIiE9fetch_addEiSt12memory_order.exit

acqrel.i:                                         ; preds = %if.then
  %10 = load i32, ptr %.atomictmp.i, align 4
  %11 = atomicrmw add ptr %this1.i, i32 %10 acq_rel, align 4
  store i32 %11, ptr %atomic-temp.i, align 4
  br label %_ZNSt13__atomic_baseIiE9fetch_addEiSt12memory_order.exit

seqcst.i:                                         ; preds = %if.then
  %12 = load i32, ptr %.atomictmp.i, align 4
  %13 = atomicrmw add ptr %this1.i, i32 %12 seq_cst, align 4
  store i32 %13, ptr %atomic-temp.i, align 4
  br label %_ZNSt13__atomic_baseIiE9fetch_addEiSt12memory_order.exit

_ZNSt13__atomic_baseIiE9fetch_addEiSt12memory_order.exit: ; preds = %seqcst.i, %acqrel.i, %release.i, %acquire.i, %monotonic.i
  br label %if.end

if.end:                                           ; preds = %_ZNSt13__atomic_baseIiE9fetch_addEiSt12memory_order.exit, %entry
  ret void
}

; Function Attrs: mustprogress nounwind uwtable
define linkonce_odr noundef ptr @_ZSt10__exchangeIP30grpc_transport_stream_op_batchDnET_RS2_OT0_(ptr noundef nonnull align 8 dereferenceable(8) %__obj, ptr noundef nonnull align 8 dereferenceable(8) %__new_val) #5 comdat {
entry:
  %__obj.addr = alloca ptr, align 8
  %__new_val.addr = alloca ptr, align 8
  %__old_val = alloca ptr, align 8
  store ptr %__obj, ptr %__obj.addr, align 8
  store ptr %__new_val, ptr %__new_val.addr, align 8
  %0 = load ptr, ptr %__obj.addr, align 8
  %1 = load ptr, ptr %0, align 8
  store ptr %1, ptr %__old_val, align 8
  %2 = load ptr, ptr %__obj.addr, align 8
  store ptr null, ptr %2, align 8
  %3 = load ptr, ptr %__old_val, align 8
  ret ptr %3
}

; Function Attrs: mustprogress uwtable
define linkonce_odr void @_ZN9grpc_core21promise_filter_detail12BaseCallData7Flusher6CancelEP30grpc_transport_stream_op_batchN4absl12lts_202308026StatusE(ptr noundef nonnull align 8 dereferenceable(184) %this, ptr noundef %batch, ptr noundef %error) #4 comdat align 2 personality ptr @__gxx_personality_v0 {
entry:
  %this.addr = alloca ptr, align 8
  %batch.addr = alloca ptr, align 8
  %error.indirect_addr = alloca ptr, align 8
  %agg.tmp = alloca %"class.absl::lts_20230802::Status", align 8
  %exn.slot = alloca ptr, align 8
  %ehselector.slot = alloca i32, align 4
  store ptr %this, ptr %this.addr, align 8
  store ptr %batch, ptr %batch.addr, align 8
  store ptr %error, ptr %error.indirect_addr, align 8
  %this1 = load ptr, ptr %this.addr, align 8
  %0 = load ptr, ptr %batch.addr, align 8
  call void @_ZN4absl12lts_202308026StatusC2ERKS1_(ptr noundef nonnull align 8 dereferenceable(8) %agg.tmp, ptr noundef nonnull align 8 dereferenceable(8) %error)
  %call_closures_ = getelementptr inbounds %"class.grpc_core::promise_filter_detail::BaseCallData::Flusher", ptr %this1, i32 0, i32 1
  invoke void @_Z56grpc_transport_stream_op_batch_queue_finish_with_failureP30grpc_transport_stream_op_batchN4absl12lts_202308026StatusEPN9grpc_core23CallCombinerClosureListE(ptr noundef %0, ptr noundef %agg.tmp, ptr noundef %call_closures_)
          to label %invoke.cont unwind label %lpad

invoke.cont:                                      ; preds = %entry
  call void @_ZN4absl12lts_202308026StatusD2Ev(ptr noundef nonnull align 8 dereferenceable(8) %agg.tmp) #3
  ret void

lpad:                                             ; preds = %entry
  %1 = landingpad { ptr, i32 }
          cleanup
  %2 = extractvalue { ptr, i32 } %1, 0
  store ptr %2, ptr %exn.slot, align 8
  %3 = extractvalue { ptr, i32 } %1, 1
  store i32 %3, ptr %ehselector.slot, align 4
  call void @_ZN4absl12lts_202308026StatusD2Ev(ptr noundef nonnull align 8 dereferenceable(8) %agg.tmp) #3
  br label %eh.resume

eh.resume:                                        ; preds = %lpad
  %exn = load ptr, ptr %exn.slot, align 8
  %sel = load i32, ptr %ehselector.slot, align 4
  %lpad.val = insertvalue { ptr, i32 } poison, ptr %exn, 0
  %lpad.val2 = insertvalue { ptr, i32 } %lpad.val, i32 %sel, 1
  resume { ptr, i32 } %lpad.val2
}

; Function Attrs: mustprogress uwtable
define linkonce_odr void @_ZN4absl12lts_202308026StatusC2ERKS1_(ptr noundef nonnull align 8 dereferenceable(8) %this, ptr noundef nonnull align 8 dereferenceable(8) %x) unnamed_addr #4 comdat align 2 {
entry:
  %this.addr = alloca ptr, align 8
  %x.addr = alloca ptr, align 8
  store ptr %this, ptr %this.addr, align 8
  store ptr %x, ptr %x.addr, align 8
  %this1 = load ptr, ptr %this.addr, align 8
  %rep_ = getelementptr inbounds %"class.absl::lts_20230802::Status", ptr %this1, i32 0, i32 0
  %0 = load ptr, ptr %x.addr, align 8
  %rep_2 = getelementptr inbounds %"class.absl::lts_20230802::Status", ptr %0, i32 0, i32 0
  %1 = load i64, ptr %rep_2, align 8
  store i64 %1, ptr %rep_, align 8
  %rep_3 = getelementptr inbounds %"class.absl::lts_20230802::Status", ptr %this1, i32 0, i32 0
  %2 = load i64, ptr %rep_3, align 8
  call void @_ZN4absl12lts_202308026Status3RefEm(i64 noundef %2)
  ret void
}

; Function Attrs: mustprogress nounwind uwtable
define internal noundef ptr @_ZN9grpc_core21promise_filter_detail12_GLOBAL__N_113RefCountFieldEP30grpc_transport_stream_op_batch(ptr noundef %b) #5 {
entry:
  %b.addr = alloca ptr, align 8
  store ptr %b, ptr %b.addr, align 8
  %0 = load ptr, ptr %b.addr, align 8
  %handler_private = getelementptr inbounds %struct.grpc_transport_stream_op_batch, ptr %0, i32 0, i32 3
  %closure = getelementptr inbounds %struct.grpc_handler_private_op_data, ptr %handler_private, i32 0, i32 1
  %error_data = getelementptr inbounds %struct.grpc_closure, ptr %closure, i32 0, i32 3
  ret ptr %error_data
}

; Function Attrs: mustprogress nounwind uwtable
define linkonce_odr noundef ptr @_ZSt8exchangeIP30grpc_transport_stream_op_batchDnET_RS2_OT0_(ptr noundef nonnull align 8 dereferenceable(8) %__obj, ptr noundef nonnull align 8 dereferenceable(8) %__new_val) #5 comdat personality ptr @__gxx_personality_v0 {
entry:
  %__obj.addr = alloca ptr, align 8
  %__new_val.addr = alloca ptr, align 8
  store ptr %__obj, ptr %__obj.addr, align 8
  store ptr %__new_val, ptr %__new_val.addr, align 8
  %0 = load ptr, ptr %__obj.addr, align 8
  %1 = load ptr, ptr %__new_val.addr, align 8
  %call = invoke noundef ptr @_ZSt10__exchangeIP30grpc_transport_stream_op_batchDnET_RS2_OT0_(ptr noundef nonnull align 8 dereferenceable(8) %0, ptr noundef nonnull align 8 dereferenceable(8) %1)
          to label %invoke.cont unwind label %terminate.lpad

invoke.cont:                                      ; preds = %entry
  ret ptr %call

terminate.lpad:                                   ; preds = %entry
  %2 = landingpad { ptr, i32 }
          catch ptr null
  %3 = extractvalue { ptr, i32 } %2, 0
  call void @__clang_call_terminate(ptr %3) #16
  unreachable
}

; Function Attrs: mustprogress uwtable
define void @_ZN9grpc_core21promise_filter_detail12BaseCallData13CapturedBatch10CancelWithEN4absl12lts_202308026StatusEPNS1_7FlusherE(ptr noundef nonnull align 8 dereferenceable(8) %this, ptr noundef %error, ptr noundef %releaser) #4 align 2 personality ptr @__gxx_personality_v0 {
entry:
  %this.addr = alloca ptr, align 8
  %error.indirect_addr = alloca ptr, align 8
  %releaser.addr = alloca ptr, align 8
  %batch = alloca ptr, align 8
  %ref.tmp = alloca ptr, align 8
  %refcnt = alloca ptr, align 8
  %agg.tmp = alloca %"class.absl::lts_20230802::Status", align 8
  %exn.slot = alloca ptr, align 8
  %ehselector.slot = alloca i32, align 4
  store ptr %this, ptr %this.addr, align 8
  store ptr %error, ptr %error.indirect_addr, align 8
  store ptr %releaser, ptr %releaser.addr, align 8
  %this1 = load ptr, ptr %this.addr, align 8
  %batch_ = getelementptr inbounds %"class.grpc_core::promise_filter_detail::BaseCallData::CapturedBatch", ptr %this1, i32 0, i32 0
  store ptr null, ptr %ref.tmp, align 8
  %call = call noundef ptr @_ZSt8exchangeIP30grpc_transport_stream_op_batchDnET_RS2_OT0_(ptr noundef nonnull align 8 dereferenceable(8) %batch_, ptr noundef nonnull align 8 dereferenceable(8) %ref.tmp) #3
  store ptr %call, ptr %batch, align 8
  br label %do.body

do.body:                                          ; preds = %entry
  %0 = load ptr, ptr %batch, align 8
  %cmp = icmp ne ptr %0, null
  %lnot = xor i1 %cmp, true
  br i1 %lnot, label %if.then, label %if.end

if.then:                                          ; preds = %do.body
  call void @gpr_assertion_failed(ptr noundef @.str.5, i32 noundef 243, ptr noundef @.str.7) #17
  unreachable

if.end:                                           ; preds = %do.body
  br label %do.end

do.end:                                           ; preds = %if.end
  %1 = load ptr, ptr %batch, align 8
  %call2 = call noundef ptr @_ZN9grpc_core21promise_filter_detail12_GLOBAL__N_113RefCountFieldEP30grpc_transport_stream_op_batch(ptr noundef %1)
  store ptr %call2, ptr %refcnt, align 8
  %2 = load ptr, ptr %refcnt, align 8
  %3 = load i64, ptr %2, align 8
  %cmp3 = icmp eq i64 %3, 0
  br i1 %cmp3, label %if.then4, label %if.end5

if.then4:                                         ; preds = %do.end
  br label %return

if.end5:                                          ; preds = %do.end
  %4 = load ptr, ptr %refcnt, align 8
  store i64 0, ptr %4, align 8
  %5 = load ptr, ptr %releaser.addr, align 8
  %6 = load ptr, ptr %batch, align 8
  call void @_ZN4absl12lts_202308026StatusC2ERKS1_(ptr noundef nonnull align 8 dereferenceable(8) %agg.tmp, ptr noundef nonnull align 8 dereferenceable(8) %error)
  invoke void @_ZN9grpc_core21promise_filter_detail12BaseCallData7Flusher6CancelEP30grpc_transport_stream_op_batchN4absl12lts_202308026StatusE(ptr noundef nonnull align 8 dereferenceable(184) %5, ptr noundef %6, ptr noundef %agg.tmp)
          to label %invoke.cont unwind label %lpad

invoke.cont:                                      ; preds = %if.end5
  call void @_ZN4absl12lts_202308026StatusD2Ev(ptr noundef nonnull align 8 dereferenceable(8) %agg.tmp) #3
  br label %return

return:                                           ; preds = %invoke.cont, %if.then4
  ret void

lpad:                                             ; preds = %if.end5
  %7 = landingpad { ptr, i32 }
          cleanup
  %8 = extractvalue { ptr, i32 } %7, 0
  store ptr %8, ptr %exn.slot, align 8
  %9 = extractvalue { ptr, i32 } %7, 1
  store i32 %9, ptr %ehselector.slot, align 4
  call void @_ZN4absl12lts_202308026StatusD2Ev(ptr noundef nonnull align 8 dereferenceable(8) %agg.tmp) #3
  br label %eh.resume

eh.resume:                                        ; preds = %lpad
  %exn = load ptr, ptr %exn.slot, align 8
  %sel = load i32, ptr %ehselector.slot, align 4
  %lpad.val = insertvalue { ptr, i32 } poison, ptr %exn, 0
  %lpad.val6 = insertvalue { ptr, i32 } %lpad.val, i32 %sel, 1
  resume { ptr, i32 } %lpad.val6
}