; Function Attrs: mustprogress uwtable
define void @_ZN9grpc_core21promise_filter_detail12BaseCallData13CapturedBatch10CancelWithEN4absl12lts_202308026StatusEPNS1_7FlusherE(ptr nocapture noundef nonnull align 8 dereferenceable(8) %this, ptr nocapture noundef readonly %error, ptr noundef %releaser) local_unnamed_addr #3 align 2 personality ptr @__gxx_personality_v0 {
entry:
  %agg.tmp.i = alloca %"class.absl::lts_20230802::Status", align 8
  %agg.tmp = alloca %"class.absl::lts_20230802::Status", align 8
  %0 = load ptr, ptr %this, align 8
  store ptr null, ptr %this, align 8
  %cmp.not = icmp eq ptr %0, null
  br i1 %cmp.not, label %if.then, label %do.end

if.then:                                          ; preds = %entry
  tail call void @gpr_assertion_failed(ptr noundef nonnull @.str.5, i32 noundef 243, ptr noundef nonnull @.str.7) #33
  unreachable

do.end:                                           ; preds = %entry
  %error_data.i = getelementptr inbounds i8, ptr %0, i64 56
  %1 = load i64, ptr %error_data.i, align 8
  %cmp3 = icmp eq i64 %1, 0
  br i1 %cmp3, label %return, label %if.end5

if.end5:                                          ; preds = %do.end
  store i64 0, ptr %error_data.i, align 8
  %2 = load i64, ptr %error, align 8
  store i64 %2, ptr %agg.tmp, align 8
  %and.i.i.i = and i64 %2, 1
  %cmp.i.i.i = icmp eq i64 %and.i.i.i, 0
  br i1 %cmp.i.i.i, label %_ZN4absl12lts_202308026StatusC2ERKS1_.exit.thread, label %if.then.i.i.i

_ZN4absl12lts_202308026StatusC2ERKS1_.exit.thread: ; preds = %if.end5
  call void @llvm.lifetime.start.p0(i64 8, ptr nonnull %agg.tmp.i)
  store i64 %2, ptr %agg.tmp.i, align 8
  br label %_ZN4absl12lts_202308026StatusC2ERKS1_.exit.i

if.then.i.i.i:                                    ; preds = %if.end5
  %sub.i.i.i = add nsw i64 %2, -1
  %3 = inttoptr i64 %sub.i.i.i to ptr
  %4 = atomicrmw add ptr %3, i32 1 monotonic, align 4
  call void @llvm.lifetime.start.p0(i64 8, ptr nonnull %agg.tmp.i)
  store i64 %2, ptr %agg.tmp.i, align 8
  %sub.i.i.i.i = add nsw i64 %2, -1
  %5 = inttoptr i64 %sub.i.i.i.i to ptr
  %6 = atomicrmw add ptr %5, i32 1 monotonic, align 4
  br label %_ZN4absl12lts_202308026StatusC2ERKS1_.exit.i

_ZN4absl12lts_202308026StatusC2ERKS1_.exit.i:     ; preds = %_ZN4absl12lts_202308026StatusC2ERKS1_.exit.thread, %if.then.i.i.i
  %call_closures_.i = getelementptr inbounds i8, ptr %releaser, i64 24
  invoke void @_Z56grpc_transport_stream_op_batch_queue_finish_with_failureP30grpc_transport_stream_op_batchN4absl12lts_202308026StatusEPN9grpc_core23CallCombinerClosureListE(ptr noundef nonnull %0, ptr noundef nonnull %agg.tmp.i, ptr noundef nonnull %call_closures_.i)
          to label %invoke.cont.i unwind label %lpad.i

invoke.cont.i:                                    ; preds = %_ZN4absl12lts_202308026StatusC2ERKS1_.exit.i
  %7 = load i64, ptr %agg.tmp.i, align 8
  %and.i.i.i1.i = and i64 %7, 1
  %cmp.i.i.i2.i = icmp eq i64 %and.i.i.i1.i, 0
  br i1 %cmp.i.i.i2.i, label %invoke.cont, label %if.then.i.i3.i

if.then.i.i3.i:                                   ; preds = %invoke.cont.i
  invoke void @_ZN4absl12lts_202308026Status15UnrefNonInlinedEm(i64 noundef %7)
          to label %invoke.cont unwind label %terminate.lpad.i.i

terminate.lpad.i.i:                               ; preds = %if.then.i.i3.i
  %8 = landingpad { ptr, i32 }
          catch ptr null
  %9 = extractvalue { ptr, i32 } %8, 0
  call void @__clang_call_terminate(ptr %9) #32
  unreachable

lpad.i:                                           ; preds = %_ZN4absl12lts_202308026StatusC2ERKS1_.exit.i
  %10 = landingpad { ptr, i32 }
          cleanup
  call void @_ZN4absl12lts_202308026StatusD2Ev(ptr noundef nonnull align 8 dereferenceable(8) %agg.tmp.i) #31
  call void @_ZN4absl12lts_202308026StatusD2Ev(ptr noundef nonnull align 8 dereferenceable(8) %agg.tmp) #31
  resume { ptr, i32 } %10

invoke.cont:                                      ; preds = %if.then.i.i3.i, %invoke.cont.i
  call void @llvm.lifetime.end.p0(i64 8, ptr nonnull %agg.tmp.i)
  br i1 %cmp.i.i.i, label %return, label %if.then.i.i6

if.then.i.i6:                                     ; preds = %invoke.cont
  invoke void @_ZN4absl12lts_202308026Status15UnrefNonInlinedEm(i64 noundef %2)
          to label %return unwind label %terminate.lpad.i

terminate.lpad.i:                                 ; preds = %if.then.i.i6
  %11 = landingpad { ptr, i32 }
          catch ptr null
  %12 = extractvalue { ptr, i32 } %11, 0
  call void @__clang_call_terminate(ptr %12) #32
  unreachable

return:                                           ; preds = %if.then.i.i6, %invoke.cont, %do.end
  ret void
}